ccopy_reg
_reconstructor
p0
(csklearn.linear_model.base
LinearRegression
p1
c__builtin__
object
p2
Ntp3
Rp4
(dp5
S'normalize'
p6
I00
sS'n_jobs'
p7
I-1
sS'rank_'
p8
I3
sS'fit_intercept'
p9
I01
sS'_residues'
p10
cnumpy.core.multiarray
scalar
p11
(cnumpy
dtype
p12
(S'f8'
p13
I0
I1
tp14
Rp15
(I3
S'<'
p16
NNNI-1
I-1
I0
tp17
bS'\xa2\xa1[7g\x0c1A'
p18
tp19
Rp20
sS'coef_'
p21
cnumpy.core.multiarray
_reconstruct
p22
(cnumpy
ndarray
p23
(I0
tp24
S'b'
p25
tp26
Rp27
(I1
(I3
tp28
g15
I00
S'\x1d\x87\x87\\\xb4.@@\x1e@1C\x98\xb7\xcd\xbfTp\xc5`\x81l\xd2?'
p29
tp30
bsS'_sklearn_version'
p31
S'0.19.2'
p32
sS'copy_X'
p33
I01
sS'intercept_'
p34
g11
(g15
S'\x92\x19\xe6\xdcH!L@'
p35
tp36
Rp37
sS'singular_'
p38
g22
(g23
(I0
tp39
g25
tp40
Rp41
(I1
(I3
tp42
g15
I00
S'\xad\xb1)\x12\x0e\xa5M@\x0evB\x13\xe1\xe2G@\xb1\xe7\xb5/X=B@'
p43
tp44
bsb.